; Function Attrs: nounwind uwtable
define void @av_packet_free_side_data(ptr noundef %0) local_unnamed_addr #3 {
  %2 = getelementptr inbounds nuw i8, ptr %0, i64 56
  %3 = load i32, ptr %2, align 8, !tbaa !22
  %4 = icmp sgt i32 %3, 0
  br i1 %4, label %.lr.ph, label %._crit_edge

.lr.ph:                                           ; preds = %1
  %5 = getelementptr inbounds nuw i8, ptr %0, i64 48
  br label %6

6:                                                ; preds = %.lr.ph, %6
  %indvars.iv = phi i64 [ 0, %.lr.ph ], [ %indvars.iv.next, %6 ]
  %7 = load ptr, ptr %5, align 8, !tbaa !21
  %8 = getelementptr inbounds nuw %struct.AVPacketSideData, ptr %7, i64 %indvars.iv
  tail call void @av_freep(ptr noundef %8) #16
  %indvars.iv.next = add nuw nsw i64 %indvars.iv, 1
  %9 = load i32, ptr %2, align 8, !tbaa !22
  %10 = sext i32 %9 to i64
  %11 = icmp slt i64 %indvars.iv.next, %10
  br i1 %11, label %6, label %._crit_edge, !llvm.loop !25

._crit_edge:                                      ; preds = %6, %1
  %12 = getelementptr inbounds nuw i8, ptr %0, i64 48
  tail call void @av_freep(ptr noundef nonnull %12) #16
  store i32 0, ptr %2, align 8, !tbaa !22
  ret void
}